target datalayout = "e-m:e-p270:32:32-p271:32:32-p272:64:64-i64:64-i128:128-f80:128-n8:16:32:64-S128"
target triple = "x86_64-pc-linux-gnu"

%"class.cv::Vec" = type { %"class.cv::Matx" }
%"class.cv::Matx" = type { [2 x i32] }

; Function Attrs: mustprogress nounwind uwtable
define internal noundef i32 @_ZN2cvL13saturate_castIiEET_i(i32 noundef %0) #4 {
  %2 = alloca i32, align 4
  store i32 %0, ptr %2, align 4
  %3 = load i32, ptr %2, align 4
  ret i32 %3
}

; Function Attrs: mustprogress nounwind uwtable
define linkonce_odr hidden noundef nonnull align 4 dereferenceable(4) ptr @_ZNK2cv3VecIiLi2EEixEi(ptr noundef nonnull align 4 dereferenceable(8) %0, i32 noundef %1) #4 comdat align 2 {
  %3 = alloca ptr, align 8
  %4 = alloca i32, align 4
  store ptr %0, ptr %3, align 8
  store i32 %1, ptr %4, align 4
  %5 = load ptr, ptr %3, align 8
  %6 = getelementptr inbounds %"class.cv::Matx", ptr %5, i32 0, i32 0
  %7 = load i32, ptr %4, align 4
  %8 = sext i32 %7 to i64
  %9 = getelementptr inbounds [2 x i32], ptr %6, i64 0, i64 %8
  ret ptr %9
}

; Function Attrs: mustprogress nounwind uwtable
define internal void @_ZN2cvL9randBits_IiEEvPT_iPmPKNS_3VecIiLi2EEEb(ptr noundef %0, i32 noundef %1, ptr noundef %2, ptr noundef %3, i1 noundef zeroext %4) #4 {
  %6 = alloca ptr, align 8
  %7 = alloca i32, align 4
  %8 = alloca ptr, align 8
  %9 = alloca ptr, align 8
  %10 = alloca i8, align 1
  %11 = alloca i64, align 8
  %12 = alloca i32, align 4
  %13 = alloca i32, align 4
  %14 = alloca i32, align 4
  %15 = alloca i32, align 4
  %16 = alloca i32, align 4
  %17 = alloca i32, align 4
  %18 = alloca i32, align 4
  store ptr %0, ptr %6, align 8
  store i32 %1, ptr %7, align 4
  store ptr %2, ptr %8, align 8
  store ptr %3, ptr %9, align 8
  %19 = zext i1 %4 to i8
  store i8 %19, ptr %10, align 1
  %20 = load ptr, ptr %8, align 8
  %21 = load i64, ptr %20, align 8
  store i64 %21, ptr %11, align 8
  %22 = load i8, ptr %10, align 1
  %23 = trunc i8 %22 to i1
  br i1 %23, label %160, label %24

24:                                               ; preds = %5
  store i32 0, ptr %12, align 4
  br label %25

25:                                               ; preds = %156, %24
  %26 = load i32, ptr %12, align 4
  %27 = load i32, ptr %7, align 4
  %28 = sub nsw i32 %27, 4
  %29 = icmp sle i32 %26, %28
  br i1 %29, label %30, label %159

30:                                               ; preds = %25
  %31 = load i64, ptr %11, align 8
  %32 = trunc i64 %31 to i32
  %33 = zext i32 %32 to i64
  %34 = mul i64 %33, 4164903690
  %35 = load i64, ptr %11, align 8
  %36 = lshr i64 %35, 32
  %37 = add i64 %34, %36
  store i64 %37, ptr %11, align 8
  %38 = load i64, ptr %11, align 8
  %39 = trunc i64 %38 to i32
  %40 = load ptr, ptr %9, align 8
  %41 = load i32, ptr %12, align 4
  %42 = sext i32 %41 to i64
  %43 = getelementptr inbounds %"class.cv::Vec", ptr %40, i64 %42
  %44 = call noundef nonnull align 4 dereferenceable(4) ptr @_ZNK2cv3VecIiLi2EEixEi(ptr noundef nonnull align 4 dereferenceable(8) %43, i32 noundef 0)
  %45 = load i32, ptr %44, align 4
  %46 = and i32 %39, %45
  %47 = load ptr, ptr %9, align 8
  %48 = load i32, ptr %12, align 4
  %49 = sext i32 %48 to i64
  %50 = getelementptr inbounds %"class.cv::Vec", ptr %47, i64 %49
  %51 = call noundef nonnull align 4 dereferenceable(4) ptr @_ZNK2cv3VecIiLi2EEixEi(ptr noundef nonnull align 4 dereferenceable(8) %50, i32 noundef 1)
  %52 = load i32, ptr %51, align 4
  %53 = add nsw i32 %46, %52
  store i32 %53, ptr %13, align 4
  %54 = load i64, ptr %11, align 8
  %55 = trunc i64 %54 to i32
  %56 = zext i32 %55 to i64
  %57 = mul i64 %56, 4164903690
  %58 = load i64, ptr %11, align 8
  %59 = lshr i64 %58, 32
  %60 = add i64 %57, %59
  store i64 %60, ptr %11, align 8
  %61 = load i64, ptr %11, align 8
  %62 = trunc i64 %61 to i32
  %63 = load ptr, ptr %9, align 8
  %64 = load i32, ptr %12, align 4
  %65 = add nsw i32 %64, 1
  %66 = sext i32 %65 to i64
  %67 = getelementptr inbounds %"class.cv::Vec", ptr %63, i64 %66
  %68 = call noundef nonnull align 4 dereferenceable(4) ptr @_ZNK2cv3VecIiLi2EEixEi(ptr noundef nonnull align 4 dereferenceable(8) %67, i32 noundef 0)
  %69 = load i32, ptr %68, align 4
  %70 = and i32 %62, %69
  %71 = load ptr, ptr %9, align 8
  %72 = load i32, ptr %12, align 4
  %73 = add nsw i32 %72, 1
  %74 = sext i32 %73 to i64
  %75 = getelementptr inbounds %"class.cv::Vec", ptr %71, i64 %74
  %76 = call noundef nonnull align 4 dereferenceable(4) ptr @_ZNK2cv3VecIiLi2EEixEi(ptr noundef nonnull align 4 dereferenceable(8) %75, i32 noundef 1)
  %77 = load i32, ptr %76, align 4
  %78 = add nsw i32 %70, %77
  store i32 %78, ptr %14, align 4
  %79 = load i32, ptr %13, align 4
  %80 = call noundef i32 @_ZN2cvL13saturate_castIiEET_i(i32 noundef %79)
  %81 = load ptr, ptr %6, align 8
  %82 = load i32, ptr %12, align 4
  %83 = sext i32 %82 to i64
  %84 = getelementptr inbounds i32, ptr %81, i64 %83
  store i32 %80, ptr %84, align 4
  %85 = load i32, ptr %14, align 4
  %86 = call noundef i32 @_ZN2cvL13saturate_castIiEET_i(i32 noundef %85)
  %87 = load ptr, ptr %6, align 8
  %88 = load i32, ptr %12, align 4
  %89 = add nsw i32 %88, 1
  %90 = sext i32 %89 to i64
  %91 = getelementptr inbounds i32, ptr %87, i64 %90
  store i32 %86, ptr %91, align 4
  %92 = load i64, ptr %11, align 8
  %93 = trunc i64 %92 to i32
  %94 = zext i32 %93 to i64
  %95 = mul i64 %94, 4164903690
  %96 = load i64, ptr %11, align 8
  %97 = lshr i64 %96, 32
  %98 = add i64 %95, %97
  store i64 %98, ptr %11, align 8
  %99 = load i64, ptr %11, align 8
  %100 = trunc i64 %99 to i32
  %101 = load ptr, ptr %9, align 8
  %102 = load i32, ptr %12, align 4
  %103 = add nsw i32 %102, 2
  %104 = sext i32 %103 to i64
  %105 = getelementptr inbounds %"class.cv::Vec", ptr %101, i64 %104
  %106 = call noundef nonnull align 4 dereferenceable(4) ptr @_ZNK2cv3VecIiLi2EEixEi(ptr noundef nonnull align 4 dereferenceable(8) %105, i32 noundef 0)
  %107 = load i32, ptr %106, align 4
  %108 = and i32 %100, %107
  %109 = load ptr, ptr %9, align 8
  %110 = load i32, ptr %12, align 4
  %111 = add nsw i32 %110, 2
  %112 = sext i32 %111 to i64
  %113 = getelementptr inbounds %"class.cv::Vec", ptr %109, i64 %112
  %114 = call noundef nonnull align 4 dereferenceable(4) ptr @_ZNK2cv3VecIiLi2EEixEi(ptr noundef nonnull align 4 dereferenceable(8) %113, i32 noundef 1)
  %115 = load i32, ptr %114, align 4
  %116 = add nsw i32 %108, %115
  store i32 %116, ptr %13, align 4
  %117 = load i64, ptr %11, align 8
  %118 = trunc i64 %117 to i32
  %119 = zext i32 %118 to i64
  %120 = mul i64 %119, 4164903690
  %121 = load i64, ptr %11, align 8
  %122 = lshr i64 %121, 32
  %123 = add i64 %120, %122
  store i64 %123, ptr %11, align 8
  %124 = load i64, ptr %11, align 8
  %125 = trunc i64 %124 to i32
  %126 = load ptr, ptr %9, align 8
  %127 = load i32, ptr %12, align 4
  %128 = add nsw i32 %127, 3
  %129 = sext i32 %128 to i64
  %130 = getelementptr inbounds %"class.cv::Vec", ptr %126, i64 %129
  %131 = call noundef nonnull align 4 dereferenceable(4) ptr @_ZNK2cv3VecIiLi2EEixEi(ptr noundef nonnull align 4 dereferenceable(8) %130, i32 noundef 0)
  %132 = load i32, ptr %131, align 4
  %133 = and i32 %125, %132
  %134 = load ptr, ptr %9, align 8
  %135 = load i32, ptr %12, align 4
  %136 = add nsw i32 %135, 3
  %137 = sext i32 %136 to i64
  %138 = getelementptr inbounds %"class.cv::Vec", ptr %134, i64 %137
  %139 = call noundef nonnull align 4 dereferenceable(4) ptr @_ZNK2cv3VecIiLi2EEixEi(ptr noundef nonnull align 4 dereferenceable(8) %138, i32 noundef 1)
  %140 = load i32, ptr %139, align 4
  %141 = add nsw i32 %133, %140
  store i32 %141, ptr %14, align 4
  %142 = load i32, ptr %13, align 4
  %143 = call noundef i32 @_ZN2cvL13saturate_castIiEET_i(i32 noundef %142)
  %144 = load ptr, ptr %6, align 8
  %145 = load i32, ptr %12, align 4
  %146 = add nsw i32 %145, 2
  %147 = sext i32 %146 to i64
  %148 = getelementptr inbounds i32, ptr %144, i64 %147
  store i32 %143, ptr %148, align 4
  %149 = load i32, ptr %14, align 4
  %150 = call noundef i32 @_ZN2cvL13saturate_castIiEET_i(i32 noundef %149)
  %151 = load ptr, ptr %6, align 8
  %152 = load i32, ptr %12, align 4
  %153 = add nsw i32 %152, 3
  %154 = sext i32 %153 to i64
  %155 = getelementptr inbounds i32, ptr %151, i64 %154
  store i32 %150, ptr %155, align 4
  br label %156

156:                                              ; preds = %30
  %157 = load i32, ptr %12, align 4
  %158 = add nsw i32 %157, 4
  store i32 %158, ptr %12, align 4
  br label %25, !llvm.loop !81

159:                                              ; preds = %25
  br label %276

160:                                              ; preds = %5
  store i32 0, ptr %12, align 4
  br label %161

161:                                              ; preds = %272, %160
  %162 = load i32, ptr %12, align 4
  %163 = load i32, ptr %7, align 4
  %164 = sub nsw i32 %163, 4
  %165 = icmp sle i32 %162, %164
  br i1 %165, label %166, label %275

166:                                              ; preds = %161
  %167 = load i64, ptr %11, align 8
  %168 = trunc i64 %167 to i32
  %169 = zext i32 %168 to i64
  %170 = mul i64 %169, 4164903690
  %171 = load i64, ptr %11, align 8
  %172 = lshr i64 %171, 32
  %173 = add i64 %170, %172
  store i64 %173, ptr %11, align 8
  %174 = load i64, ptr %11, align 8
  %175 = trunc i64 %174 to i32
  store i32 %175, ptr %17, align 4
  %176 = load i32, ptr %17, align 4
  %177 = load ptr, ptr %9, align 8
  %178 = load i32, ptr %12, align 4
  %179 = sext i32 %178 to i64
  %180 = getelementptr inbounds %"class.cv::Vec", ptr %177, i64 %179
  %181 = call noundef nonnull align 4 dereferenceable(4) ptr @_ZNK2cv3VecIiLi2EEixEi(ptr noundef nonnull align 4 dereferenceable(8) %180, i32 noundef 0)
  %182 = load i32, ptr %181, align 4
  %183 = and i32 %176, %182
  %184 = load ptr, ptr %9, align 8
  %185 = load i32, ptr %12, align 4
  %186 = sext i32 %185 to i64
  %187 = getelementptr inbounds %"class.cv::Vec", ptr %184, i64 %186
  %188 = call noundef nonnull align 4 dereferenceable(4) ptr @_ZNK2cv3VecIiLi2EEixEi(ptr noundef nonnull align 4 dereferenceable(8) %187, i32 noundef 1)
  %189 = load i32, ptr %188, align 4
  %190 = add nsw i32 %183, %189
  store i32 %190, ptr %15, align 4
  %191 = load i32, ptr %17, align 4
  %192 = ashr i32 %191, 8
  %193 = load ptr, ptr %9, align 8
  %194 = load i32, ptr %12, align 4
  %195 = add nsw i32 %194, 1
  %196 = sext i32 %195 to i64
  %197 = getelementptr inbounds %"class.cv::Vec", ptr %193, i64 %196
  %198 = call noundef nonnull align 4 dereferenceable(4) ptr @_ZNK2cv3VecIiLi2EEixEi(ptr noundef nonnull align 4 dereferenceable(8) %197, i32 noundef 0)
  %199 = load i32, ptr %198, align 4
  %200 = and i32 %192, %199
  %201 = load ptr, ptr %9, align 8
  %202 = load i32, ptr %12, align 4
  %203 = add nsw i32 %202, 1
  %204 = sext i32 %203 to i64
  %205 = getelementptr inbounds %"class.cv::Vec", ptr %201, i64 %204
  %206 = call noundef nonnull align 4 dereferenceable(4) ptr @_ZNK2cv3VecIiLi2EEixEi(ptr noundef nonnull align 4 dereferenceable(8) %205, i32 noundef 1)
  %207 = load i32, ptr %206, align 4
  %208 = add nsw i32 %200, %207
  store i32 %208, ptr %16, align 4
  %209 = load i32, ptr %15, align 4
  %210 = call noundef i32 @_ZN2cvL13saturate_castIiEET_i(i32 noundef %209)
  %211 = load ptr, ptr %6, align 8
  %212 = load i32, ptr %12, align 4
  %213 = sext i32 %212 to i64
  %214 = getelementptr inbounds i32, ptr %211, i64 %213
  store i32 %210, ptr %214, align 4
  %215 = load i32, ptr %16, align 4
  %216 = call noundef i32 @_ZN2cvL13saturate_castIiEET_i(i32 noundef %215)
  %217 = load ptr, ptr %6, align 8
  %218 = load i32, ptr %12, align 4
  %219 = add nsw i32 %218, 1
  %220 = sext i32 %219 to i64
  %221 = getelementptr inbounds i32, ptr %217, i64 %220
  store i32 %216, ptr %221, align 4
  %222 = load i32, ptr %17, align 4
  %223 = ashr i32 %222, 16
  %224 = load ptr, ptr %9, align 8
  %225 = load i32, ptr %12, align 4
  %226 = add nsw i32 %225, 2
  %227 = sext i32 %226 to i64
  %228 = getelementptr inbounds %"class.cv::Vec", ptr %224, i64 %227
  %229 = call noundef nonnull align 4 dereferenceable(4) ptr @_ZNK2cv3VecIiLi2EEixEi(ptr noundef nonnull align 4 dereferenceable(8) %228, i32 noundef 0)
  %230 = load i32, ptr %229, align 4
  %231 = and i32 %223, %230
  %232 = load ptr, ptr %9, align 8
  %233 = load i32, ptr %12, align 4
  %234 = add nsw i32 %233, 2
  %235 = sext i32 %234 to i64
  %236 = getelementptr inbounds %"class.cv::Vec", ptr %232, i64 %235
  %237 = call noundef nonnull align 4 dereferenceable(4) ptr @_ZNK2cv3VecIiLi2EEixEi(ptr noundef nonnull align 4 dereferenceable(8) %236, i32 noundef 1)
  %238 = load i32, ptr %237, align 4
  %239 = add nsw i32 %231, %238
  store i32 %239, ptr %15, align 4
  %240 = load i32, ptr %17, align 4
  %241 = ashr i32 %240, 24
  %242 = load ptr, ptr %9, align 8
  %243 = load i32, ptr %12, align 4
  %244 = add nsw i32 %243, 3
  %245 = sext i32 %244 to i64
  %246 = getelementptr inbounds %"class.cv::Vec", ptr %242, i64 %245
  %247 = call noundef nonnull align 4 dereferenceable(4) ptr @_ZNK2cv3VecIiLi2EEixEi(ptr noundef nonnull align 4 dereferenceable(8) %246, i32 noundef 0)
  %248 = load i32, ptr %247, align 4
  %249 = and i32 %241, %248
  %250 = load ptr, ptr %9, align 8
  %251 = load i32, ptr %12, align 4
  %252 = add nsw i32 %251, 3
  %253 = sext i32 %252 to i64
  %254 = getelementptr inbounds %"class.cv::Vec", ptr %250, i64 %253
  %255 = call noundef nonnull align 4 dereferenceable(4) ptr @_ZNK2cv3VecIiLi2EEixEi(ptr noundef nonnull align 4 dereferenceable(8) %254, i32 noundef 1)
  %256 = load i32, ptr %255, align 4
  %257 = add nsw i32 %249, %256
  store i32 %257, ptr %16, align 4
  %258 = load i32, ptr %15, align 4
  %259 = call noundef i32 @_ZN2cvL13saturate_castIiEET_i(i32 noundef %258)
  %260 = load ptr, ptr %6, align 8
  %261 = load i32, ptr %12, align 4
  %262 = add nsw i32 %261, 2
  %263 = sext i32 %262 to i64
  %264 = getelementptr inbounds i32, ptr %260, i64 %263
  store i32 %259, ptr %264, align 4
  %265 = load i32, ptr %16, align 4
  %266 = call noundef i32 @_ZN2cvL13saturate_castIiEET_i(i32 noundef %265)
  %267 = load ptr, ptr %6, align 8
  %268 = load i32, ptr %12, align 4
  %269 = add nsw i32 %268, 3
  %270 = sext i32 %269 to i64
  %271 = getelementptr inbounds i32, ptr %267, i64 %270
  store i32 %266, ptr %271, align 4
  br label %272

272:                                              ; preds = %166
  %273 = load i32, ptr %12, align 4
  %274 = add nsw i32 %273, 4
  store i32 %274, ptr %12, align 4
  br label %161, !llvm.loop !82

275:                                              ; preds = %161
  br label %276

276:                                              ; preds = %275, %159
  br label %277

277:                                              ; preds = %311, %276
  %278 = load i32, ptr %12, align 4
  %279 = load i32, ptr %7, align 4
  %280 = icmp slt i32 %278, %279
  br i1 %280, label %281, label %314

281:                                              ; preds = %277
  %282 = load i64, ptr %11, align 8
  %283 = trunc i64 %282 to i32
  %284 = zext i32 %283 to i64
  %285 = mul i64 %284, 4164903690
  %286 = load i64, ptr %11, align 8
  %287 = lshr i64 %286, 32
  %288 = add i64 %285, %287
  store i64 %288, ptr %11, align 8
  %289 = load i64, ptr %11, align 8
  %290 = trunc i64 %289 to i32
  %291 = load ptr, ptr %9, align 8
  %292 = load i32, ptr %12, align 4
  %293 = sext i32 %292 to i64
  %294 = getelementptr inbounds %"class.cv::Vec", ptr %291, i64 %293
  %295 = call noundef nonnull align 4 dereferenceable(4) ptr @_ZNK2cv3VecIiLi2EEixEi(ptr noundef nonnull align 4 dereferenceable(8) %294, i32 noundef 0)
  %296 = load i32, ptr %295, align 4
  %297 = and i32 %290, %296
  %298 = load ptr, ptr %9, align 8
  %299 = load i32, ptr %12, align 4
  %300 = sext i32 %299 to i64
  %301 = getelementptr inbounds %"class.cv::Vec", ptr %298, i64 %300
  %302 = call noundef nonnull align 4 dereferenceable(4) ptr @_ZNK2cv3VecIiLi2EEixEi(ptr noundef nonnull align 4 dereferenceable(8) %301, i32 noundef 1)
  %303 = load i32, ptr %302, align 4
  %304 = add nsw i32 %297, %303
  store i32 %304, ptr %18, align 4
  %305 = load i32, ptr %18, align 4
  %306 = call noundef i32 @_ZN2cvL13saturate_castIiEET_i(i32 noundef %305)
  %307 = load ptr, ptr %6, align 8
  %308 = load i32, ptr %12, align 4
  %309 = sext i32 %308 to i64
  %310 = getelementptr inbounds i32, ptr %307, i64 %309
  store i32 %306, ptr %310, align 4
  br label %311

311:                                              ; preds = %281
  %312 = load i32, ptr %12, align 4
  %313 = add nsw i32 %312, 1
  store i32 %313, ptr %12, align 4
  br label %277, !llvm.loop !83

314:                                              ; preds = %277
  %315 = load i64, ptr %11, align 8
  %316 = load ptr, ptr %8, align 8
  store i64 %315, ptr %316, align 8
  ret void
}

; Function Attrs: mustprogress uwtable
define internal void @_ZN2cvL12randBits_32sEPiiPmPKNS_3VecIiLi2EEEPvb(ptr noundef %0, i32 noundef %1, ptr noundef %2, ptr noundef %3, ptr noundef %4, i1 noundef zeroext %5) #0 {
  %7 = alloca ptr, align 8
  %8 = alloca i32, align 4
  %9 = alloca ptr, align 8
  %10 = alloca ptr, align 8
  %11 = alloca ptr, align 8
  %12 = alloca i8, align 1
  store ptr %0, ptr %7, align 8
  store i32 %1, ptr %8, align 4
  store ptr %2, ptr %9, align 8
  store ptr %3, ptr %10, align 8
  store ptr %4, ptr %11, align 8
  %13 = zext i1 %5 to i8
  store i8 %13, ptr %12, align 1
  %14 = load ptr, ptr %7, align 8
  %15 = load i32, ptr %8, align 4
  %16 = load ptr, ptr %9, align 8
  %17 = load ptr, ptr %10, align 8
  %18 = load i8, ptr %12, align 1
  %19 = trunc i8 %18 to i1
  call void @_ZN2cvL9randBits_IiEEvPT_iPmPKNS_3VecIiLi2EEEb(ptr noundef %14, i32 noundef %15, ptr noundef %16, ptr noundef %17, i1 noundef zeroext %19)
  ret void
}