; Function Attrs: mustprogress nofree norecurse nosync nounwind memory(argmem: readwrite) uwtable
define internal void @_ZN2cvL12randBits_32sEPiiPmPKNS_3VecIiLi2EEEPvb(ptr nocapture noundef writeonly %0, i32 noundef %1, ptr nocapture noundef %2, ptr nocapture noundef readonly %3, ptr nocapture readnone %4, i1 noundef zeroext %5) #7 {
  %7 = load i64, ptr %2, align 8
  %.not101108.i = icmp slt i32 %1, 4
  br i1 %5, label %.preheader.i, label %.preheader102.i

.preheader102.i:                                  ; preds = %6
  br i1 %.not101108.i, label %.loopexit.i, label %.lr.ph.preheader.i

.lr.ph.preheader.i:                               ; preds = %.preheader102.i
  %8 = add nsw i32 %1, -4
  %9 = zext nneg i32 %8 to i64
  br label %.lr.ph.i

.preheader.i:                                     ; preds = %6
  br i1 %.not101108.i, label %.loopexit.i, label %.lr.ph111.preheader.i

.lr.ph111.preheader.i:                            ; preds = %.preheader.i
  %10 = add nsw i32 %1, -4
  %11 = zext nneg i32 %10 to i64
  br label %.lr.ph111.i

.lr.ph.i:                                         ; preds = %.lr.ph.i, %.lr.ph.preheader.i
  %indvars.iv.i = phi i64 [ 0, %.lr.ph.preheader.i ], [ %indvars.iv.next.i, %.lr.ph.i ]
  %.0106.i = phi i64 [ %7, %.lr.ph.preheader.i ], [ %52, %.lr.ph.i ]
  %12 = and i64 %.0106.i, 4294967295
  %13 = mul nuw i64 %12, 4164903690
  %14 = lshr i64 %.0106.i, 32
  %15 = add nuw i64 %13, %14
  %16 = trunc i64 %15 to i32
  %17 = getelementptr inbounds %"class.cv::Vec", ptr %3, i64 %indvars.iv.i
  %18 = load i32, ptr %17, align 4
  %19 = and i32 %18, %16
  %20 = getelementptr inbounds i8, ptr %17, i64 4
  %21 = load i32, ptr %20, align 4
  %22 = add nsw i32 %19, %21
  %23 = and i64 %15, 4294967295
  %24 = mul nuw i64 %23, 4164903690
  %25 = lshr i64 %15, 32
  %26 = add nuw i64 %24, %25
  %27 = trunc i64 %26 to i32
  %28 = or disjoint i64 %indvars.iv.i, 1
  %29 = getelementptr inbounds %"class.cv::Vec", ptr %3, i64 %28
  %30 = load i32, ptr %29, align 4
  %31 = and i32 %30, %27
  %32 = getelementptr inbounds i8, ptr %29, i64 4
  %33 = load i32, ptr %32, align 4
  %34 = add nsw i32 %31, %33
  %35 = getelementptr inbounds i32, ptr %0, i64 %indvars.iv.i
  store i32 %22, ptr %35, align 4
  %36 = getelementptr inbounds i32, ptr %0, i64 %28
  store i32 %34, ptr %36, align 4
  %37 = and i64 %26, 4294967295
  %38 = mul nuw i64 %37, 4164903690
  %39 = lshr i64 %26, 32
  %40 = add nuw i64 %38, %39
  %41 = trunc i64 %40 to i32
  %42 = or disjoint i64 %indvars.iv.i, 2
  %43 = getelementptr inbounds %"class.cv::Vec", ptr %3, i64 %42
  %44 = load i32, ptr %43, align 4
  %45 = and i32 %44, %41
  %46 = getelementptr inbounds i8, ptr %43, i64 4
  %47 = load i32, ptr %46, align 4
  %48 = add nsw i32 %45, %47
  %49 = and i64 %40, 4294967295
  %50 = mul nuw i64 %49, 4164903690
  %51 = lshr i64 %40, 32
  %52 = add nuw i64 %50, %51
  %53 = trunc i64 %52 to i32
  %54 = or disjoint i64 %indvars.iv.i, 3
  %55 = getelementptr inbounds %"class.cv::Vec", ptr %3, i64 %54
  %56 = load i32, ptr %55, align 4
  %57 = and i32 %56, %53
  %58 = getelementptr inbounds i8, ptr %55, i64 4
  %59 = load i32, ptr %58, align 4
  %60 = add nsw i32 %57, %59
  %61 = getelementptr inbounds i32, ptr %0, i64 %42
  store i32 %48, ptr %61, align 4
  %62 = getelementptr inbounds i32, ptr %0, i64 %54
  store i32 %60, ptr %62, align 4
  %indvars.iv.next.i = add nuw nsw i64 %indvars.iv.i, 4
  %.not.i = icmp ugt i64 %indvars.iv.next.i, %9
  br i1 %.not.i, label %.loopexit.loopexit118.i, label %.lr.ph.i, !llvm.loop !99

.lr.ph111.i:                                      ; preds = %.lr.ph111.i, %.lr.ph111.preheader.i
  %indvars.iv124.i = phi i64 [ 0, %.lr.ph111.preheader.i ], [ %indvars.iv.next125.i, %.lr.ph111.i ]
  %.1110.i = phi i64 [ %7, %.lr.ph111.preheader.i ], [ %66, %.lr.ph111.i ]
  %63 = and i64 %.1110.i, 4294967295
  %64 = mul nuw i64 %63, 4164903690
  %65 = lshr i64 %.1110.i, 32
  %66 = add nuw i64 %64, %65
  %67 = trunc i64 %66 to i32
  %68 = getelementptr inbounds %"class.cv::Vec", ptr %3, i64 %indvars.iv124.i
  %69 = load i32, ptr %68, align 4
  %70 = and i32 %69, %67
  %71 = getelementptr inbounds i8, ptr %68, i64 4
  %72 = load i32, ptr %71, align 4
  %73 = add nsw i32 %70, %72
  %74 = ashr i32 %67, 8
  %75 = or disjoint i64 %indvars.iv124.i, 1
  %76 = getelementptr inbounds %"class.cv::Vec", ptr %3, i64 %75
  %77 = load i32, ptr %76, align 4
  %78 = and i32 %74, %77
  %79 = getelementptr inbounds i8, ptr %76, i64 4
  %80 = load i32, ptr %79, align 4
  %81 = add nsw i32 %78, %80
  %82 = getelementptr inbounds i32, ptr %0, i64 %indvars.iv124.i
  store i32 %73, ptr %82, align 4
  %83 = getelementptr inbounds i32, ptr %0, i64 %75
  store i32 %81, ptr %83, align 4
  %84 = ashr i32 %67, 16
  %85 = or disjoint i64 %indvars.iv124.i, 2
  %86 = getelementptr inbounds %"class.cv::Vec", ptr %3, i64 %85
  %87 = load i32, ptr %86, align 4
  %88 = and i32 %87, %84
  %89 = getelementptr inbounds i8, ptr %86, i64 4
  %90 = load i32, ptr %89, align 4
  %91 = add nsw i32 %88, %90
  %92 = ashr i32 %67, 24
  %93 = or disjoint i64 %indvars.iv124.i, 3
  %94 = getelementptr inbounds %"class.cv::Vec", ptr %3, i64 %93
  %95 = load i32, ptr %94, align 4
  %96 = and i32 %95, %92
  %97 = getelementptr inbounds i8, ptr %94, i64 4
  %98 = load i32, ptr %97, align 4
  %99 = add nsw i32 %96, %98
  %100 = getelementptr inbounds i32, ptr %0, i64 %85
  store i32 %91, ptr %100, align 4
  %101 = getelementptr inbounds i32, ptr %0, i64 %93
  store i32 %99, ptr %101, align 4
  %indvars.iv.next125.i = add nuw nsw i64 %indvars.iv124.i, 4
  %.not101.i = icmp ugt i64 %indvars.iv.next125.i, %11
  br i1 %.not101.i, label %.loopexit.loopexit.i, label %.lr.ph111.i, !llvm.loop !100

.loopexit.loopexit.i:                             ; preds = %.lr.ph111.i
  %102 = trunc nuw nsw i64 %indvars.iv.next125.i to i32
  br label %.loopexit.i

.loopexit.loopexit118.i:                          ; preds = %.lr.ph.i
  %103 = trunc nuw nsw i64 %indvars.iv.next.i to i32
  br label %.loopexit.i

.loopexit.i:                                      ; preds = %.loopexit.loopexit118.i, %.loopexit.loopexit.i, %.preheader.i, %.preheader102.i
  %.299.i = phi i32 [ 0, %.preheader.i ], [ 0, %.preheader102.i ], [ %102, %.loopexit.loopexit.i ], [ %103, %.loopexit.loopexit118.i ]
  %.2.i = phi i64 [ %7, %.preheader.i ], [ %7, %.preheader102.i ], [ %66, %.loopexit.loopexit.i ], [ %52, %.loopexit.loopexit118.i ]
  %104 = icmp slt i32 %.299.i, %1
  br i1 %104, label %.lr.ph116.preheader.i, label %_ZN2cvL9randBits_IiEEvPT_iPmPKNS_3VecIiLi2EEEb.exit

.lr.ph116.preheader.i:                            ; preds = %.loopexit.i
  %105 = zext nneg i32 %.299.i to i64
  %wide.trip.count.i = zext i32 %1 to i64
  br label %.lr.ph116.i

.lr.ph116.i:                                      ; preds = %.lr.ph116.i, %.lr.ph116.preheader.i
  %indvars.iv127.i = phi i64 [ %105, %.lr.ph116.preheader.i ], [ %indvars.iv.next128.i, %.lr.ph116.i ]
  %.3115.i = phi i64 [ %.2.i, %.lr.ph116.preheader.i ], [ %109, %.lr.ph116.i ]
  %106 = and i64 %.3115.i, 4294967295
  %107 = mul nuw i64 %106, 4164903690
  %108 = lshr i64 %.3115.i, 32
  %109 = add nuw i64 %107, %108
  %110 = trunc i64 %109 to i32
  %111 = getelementptr inbounds %"class.cv::Vec", ptr %3, i64 %indvars.iv127.i
  %112 = load i32, ptr %111, align 4
  %113 = and i32 %112, %110
  %114 = getelementptr inbounds i8, ptr %111, i64 4
  %115 = load i32, ptr %114, align 4
  %116 = add nsw i32 %113, %115
  %117 = getelementptr inbounds i32, ptr %0, i64 %indvars.iv127.i
  store i32 %116, ptr %117, align 4
  %indvars.iv.next128.i = add nuw nsw i64 %indvars.iv127.i, 1
  %exitcond.not.i = icmp eq i64 %indvars.iv.next128.i, %wide.trip.count.i
  br i1 %exitcond.not.i, label %_ZN2cvL9randBits_IiEEvPT_iPmPKNS_3VecIiLi2EEEb.exit, label %.lr.ph116.i, !llvm.loop !101

_ZN2cvL9randBits_IiEEvPT_iPmPKNS_3VecIiLi2EEEb.exit: ; preds = %.lr.ph116.i, %.loopexit.i
  %.3.lcssa.i = phi i64 [ %.2.i, %.loopexit.i ], [ %109, %.lr.ph116.i ]
  store i64 %.3.lcssa.i, ptr %2, align 8
  ret void
}